target datalayout = "e-m:e-p270:32:32-p271:32:32-p272:64:64-i64:64-i128:128-f80:128-n8:16:32:64-S128"
target triple = "x86_64-pc-linux-gnu"

%struct.AVFilterContext = type { ptr, ptr, ptr, ptr, ptr, i32, ptr, ptr, i32, ptr, ptr, i32, i32, ptr, ptr, ptr, ptr, i32, ptr, i32, i32 }
%struct.MedianContext = type { ptr, i32, i32, i32, float, [4 x i32], [4 x i32], i32, i32, i32, ptr, ptr, i32, i32, i32, i32, ptr, ptr, ptr, ptr }
%struct.ThreadData = type { ptr, ptr }
%struct.AVChannelLayout = type { i32, i32, %union.anon.1, ptr }
%union.anon.1 = type { i64 }
%struct.AVRational = type { i32, i32 }
%struct.AVFrame = type { [8 x ptr], [8 x i32], ptr, i32, i32, i32, i32, i32, %struct.AVRational, i64, i64, %struct.AVRational, i32, ptr, i32, i32, [8 x ptr], ptr, i32, ptr, i32, i32, i32, i32, i32, i32, i32, i64, ptr, i32, ptr, ptr, i64, i64, i64, i64, ptr, %struct.AVChannelLayout, i64 }

; Function Attrs: nounwind uwtable
define internal i32 @filter_slice(ptr noundef %0, ptr noundef %1, i32 noundef %2, i32 noundef %3) #1 {
  %5 = alloca ptr, align 8
  %6 = alloca ptr, align 8
  %7 = alloca i32, align 4
  %8 = alloca i32, align 4
  %9 = alloca ptr, align 8
  %10 = alloca ptr, align 8
  %11 = alloca ptr, align 8
  %12 = alloca ptr, align 8
  %13 = alloca i32, align 4
  %14 = alloca i32, align 4
  %15 = alloca i32, align 4
  %16 = alloca i32, align 4
  %17 = alloca i32, align 4
  %18 = alloca i32, align 4
  store ptr %0, ptr %5, align 8, !tbaa !4
  store ptr %1, ptr %6, align 8, !tbaa !76
  store i32 %2, ptr %7, align 4, !tbaa !24
  store i32 %3, ptr %8, align 4, !tbaa !24
  call void @llvm.lifetime.start.p0(i64 8, ptr %9) #8
  %19 = load ptr, ptr %5, align 8, !tbaa !4
  %20 = getelementptr inbounds nuw %struct.AVFilterContext, ptr %19, i32 0, i32 9
  %21 = load ptr, ptr %20, align 8, !tbaa !9
  store ptr %21, ptr %9, align 8, !tbaa !22
  call void @llvm.lifetime.start.p0(i64 8, ptr %10) #8
  %22 = load ptr, ptr %6, align 8, !tbaa !76
  store ptr %22, ptr %10, align 8, !tbaa !77
  call void @llvm.lifetime.start.p0(i64 8, ptr %11) #8
  %23 = load ptr, ptr %10, align 8, !tbaa !77
  %24 = getelementptr inbounds nuw %struct.ThreadData, ptr %23, i32 0, i32 0
  %25 = load ptr, ptr %24, align 8, !tbaa !52
  store ptr %25, ptr %11, align 8, !tbaa !39
  call void @llvm.lifetime.start.p0(i64 8, ptr %12) #8
  %26 = load ptr, ptr %10, align 8, !tbaa !77
  %27 = getelementptr inbounds nuw %struct.ThreadData, ptr %26, i32 0, i32 1
  %28 = load ptr, ptr %27, align 8, !tbaa !54
  store ptr %28, ptr %12, align 8, !tbaa !39
  call void @llvm.lifetime.start.p0(i64 4, ptr %13) #8
  store i32 0, ptr %13, align 4, !tbaa !24
  br label %29

29:                                               ; preds = %169, %4
  %30 = load i32, ptr %13, align 4, !tbaa !24
  %31 = load ptr, ptr %9, align 8, !tbaa !22
  %32 = getelementptr inbounds nuw %struct.MedianContext, ptr %31, i32 0, i32 8
  %33 = load i32, ptr %32, align 4, !tbaa !65
  %34 = icmp slt i32 %30, %33
  br i1 %34, label %36, label %35

35:                                               ; preds = %29
  store i32 2, ptr %14, align 4
  call void @llvm.lifetime.end.p0(i64 4, ptr %13) #8
  br label %172

36:                                               ; preds = %29
  call void @llvm.lifetime.start.p0(i64 4, ptr %15) #8
  %37 = load ptr, ptr %9, align 8, !tbaa !22
  %38 = getelementptr inbounds nuw %struct.MedianContext, ptr %37, i32 0, i32 6
  %39 = load i32, ptr %13, align 4, !tbaa !24
  %40 = sext i32 %39 to i64
  %41 = getelementptr inbounds [4 x i32], ptr %38, i64 0, i64 %40
  %42 = load i32, ptr %41, align 4, !tbaa !24
  store i32 %42, ptr %15, align 4, !tbaa !24
  call void @llvm.lifetime.start.p0(i64 4, ptr %16) #8
  %43 = load ptr, ptr %9, align 8, !tbaa !22
  %44 = getelementptr inbounds nuw %struct.MedianContext, ptr %43, i32 0, i32 5
  %45 = load i32, ptr %13, align 4, !tbaa !24
  %46 = sext i32 %45 to i64
  %47 = getelementptr inbounds [4 x i32], ptr %44, i64 0, i64 %46
  %48 = load i32, ptr %47, align 4, !tbaa !24
  store i32 %48, ptr %16, align 4, !tbaa !24
  call void @llvm.lifetime.start.p0(i64 4, ptr %17) #8
  %49 = load i32, ptr %15, align 4, !tbaa !24
  %50 = load i32, ptr %7, align 4, !tbaa !24
  %51 = mul nsw i32 %49, %50
  %52 = load i32, ptr %8, align 4, !tbaa !24
  %53 = sdiv i32 %51, %52
  store i32 %53, ptr %17, align 4, !tbaa !24
  call void @llvm.lifetime.start.p0(i64 4, ptr %18) #8
  %54 = load i32, ptr %15, align 4, !tbaa !24
  %55 = load i32, ptr %7, align 4, !tbaa !24
  %56 = add nsw i32 %55, 1
  %57 = mul nsw i32 %54, %56
  %58 = load i32, ptr %8, align 4, !tbaa !24
  %59 = sdiv i32 %57, %58
  store i32 %59, ptr %18, align 4, !tbaa !24
  %60 = load ptr, ptr %9, align 8, !tbaa !22
  %61 = getelementptr inbounds nuw %struct.MedianContext, ptr %60, i32 0, i32 1
  %62 = load i32, ptr %61, align 8, !tbaa !79
  %63 = load i32, ptr %13, align 4, !tbaa !24
  %64 = shl i32 1, %63
  %65 = and i32 %62, %64
  %66 = icmp ne i32 %65, 0
  br i1 %66, label %122, label %67

67:                                               ; preds = %36
  %68 = load ptr, ptr %12, align 8, !tbaa !39
  %69 = getelementptr inbounds nuw %struct.AVFrame, ptr %68, i32 0, i32 0
  %70 = load i32, ptr %13, align 4, !tbaa !24
  %71 = sext i32 %70 to i64
  %72 = getelementptr inbounds [8 x ptr], ptr %69, i64 0, i64 %71
  %73 = load ptr, ptr %72, align 8, !tbaa !33
  %74 = load i32, ptr %17, align 4, !tbaa !24
  %75 = load ptr, ptr %12, align 8, !tbaa !39
  %76 = getelementptr inbounds nuw %struct.AVFrame, ptr %75, i32 0, i32 1
  %77 = load i32, ptr %13, align 4, !tbaa !24
  %78 = sext i32 %77 to i64
  %79 = getelementptr inbounds [8 x i32], ptr %76, i64 0, i64 %78
  %80 = load i32, ptr %79, align 4, !tbaa !24
  %81 = mul nsw i32 %74, %80
  %82 = sext i32 %81 to i64
  %83 = getelementptr inbounds i8, ptr %73, i64 %82
  %84 = load ptr, ptr %12, align 8, !tbaa !39
  %85 = getelementptr inbounds nuw %struct.AVFrame, ptr %84, i32 0, i32 1
  %86 = load i32, ptr %13, align 4, !tbaa !24
  %87 = sext i32 %86 to i64
  %88 = getelementptr inbounds [8 x i32], ptr %85, i64 0, i64 %87
  %89 = load i32, ptr %88, align 4, !tbaa !24
  %90 = load ptr, ptr %11, align 8, !tbaa !39
  %91 = getelementptr inbounds nuw %struct.AVFrame, ptr %90, i32 0, i32 0
  %92 = load i32, ptr %13, align 4, !tbaa !24
  %93 = sext i32 %92 to i64
  %94 = getelementptr inbounds [8 x ptr], ptr %91, i64 0, i64 %93
  %95 = load ptr, ptr %94, align 8, !tbaa !33
  %96 = load i32, ptr %17, align 4, !tbaa !24
  %97 = load ptr, ptr %11, align 8, !tbaa !39
  %98 = getelementptr inbounds nuw %struct.AVFrame, ptr %97, i32 0, i32 1
  %99 = load i32, ptr %13, align 4, !tbaa !24
  %100 = sext i32 %99 to i64
  %101 = getelementptr inbounds [8 x i32], ptr %98, i64 0, i64 %100
  %102 = load i32, ptr %101, align 4, !tbaa !24
  %103 = mul nsw i32 %96, %102
  %104 = sext i32 %103 to i64
  %105 = getelementptr inbounds i8, ptr %95, i64 %104
  %106 = load ptr, ptr %11, align 8, !tbaa !39
  %107 = getelementptr inbounds nuw %struct.AVFrame, ptr %106, i32 0, i32 1
  %108 = load i32, ptr %13, align 4, !tbaa !24
  %109 = sext i32 %108 to i64
  %110 = getelementptr inbounds [8 x i32], ptr %107, i64 0, i64 %109
  %111 = load i32, ptr %110, align 4, !tbaa !24
  %112 = load i32, ptr %16, align 4, !tbaa !24
  %113 = load ptr, ptr %9, align 8, !tbaa !22
  %114 = getelementptr inbounds nuw %struct.MedianContext, ptr %113, i32 0, i32 7
  %115 = load i32, ptr %114, align 8, !tbaa !60
  %116 = add nsw i32 %115, 7
  %117 = sdiv i32 %116, 8
  %118 = mul nsw i32 %112, %117
  %119 = load i32, ptr %18, align 4, !tbaa !24
  %120 = load i32, ptr %17, align 4, !tbaa !24
  %121 = sub nsw i32 %119, %120
  call void @av_image_copy_plane(ptr noundef %83, i32 noundef %89, ptr noundef %105, i32 noundef %111, i32 noundef %118, i32 noundef %121)
  store i32 4, ptr %14, align 4
  br label %166

122:                                              ; preds = %36
  %123 = load ptr, ptr %9, align 8, !tbaa !22
  %124 = getelementptr inbounds nuw %struct.MedianContext, ptr %123, i32 0, i32 19
  %125 = load ptr, ptr %124, align 8, !tbaa !75
  %126 = load ptr, ptr %5, align 8, !tbaa !4
  %127 = load ptr, ptr %11, align 8, !tbaa !39
  %128 = getelementptr inbounds nuw %struct.AVFrame, ptr %127, i32 0, i32 0
  %129 = load i32, ptr %13, align 4, !tbaa !24
  %130 = sext i32 %129 to i64
  %131 = getelementptr inbounds [8 x ptr], ptr %128, i64 0, i64 %130
  %132 = load ptr, ptr %131, align 8, !tbaa !33
  %133 = load ptr, ptr %11, align 8, !tbaa !39
  %134 = getelementptr inbounds nuw %struct.AVFrame, ptr %133, i32 0, i32 1
  %135 = load i32, ptr %13, align 4, !tbaa !24
  %136 = sext i32 %135 to i64
  %137 = getelementptr inbounds [8 x i32], ptr %134, i64 0, i64 %136
  %138 = load i32, ptr %137, align 4, !tbaa !24
  %139 = load ptr, ptr %12, align 8, !tbaa !39
  %140 = getelementptr inbounds nuw %struct.AVFrame, ptr %139, i32 0, i32 0
  %141 = load i32, ptr %13, align 4, !tbaa !24
  %142 = sext i32 %141 to i64
  %143 = getelementptr inbounds [8 x ptr], ptr %140, i64 0, i64 %142
  %144 = load ptr, ptr %143, align 8, !tbaa !33
  %145 = load i32, ptr %17, align 4, !tbaa !24
  %146 = load ptr, ptr %12, align 8, !tbaa !39
  %147 = getelementptr inbounds nuw %struct.AVFrame, ptr %146, i32 0, i32 1
  %148 = load i32, ptr %13, align 4, !tbaa !24
  %149 = sext i32 %148 to i64
  %150 = getelementptr inbounds [8 x i32], ptr %147, i64 0, i64 %149
  %151 = load i32, ptr %150, align 4, !tbaa !24
  %152 = mul nsw i32 %145, %151
  %153 = sext i32 %152 to i64
  %154 = getelementptr inbounds i8, ptr %144, i64 %153
  %155 = load ptr, ptr %12, align 8, !tbaa !39
  %156 = getelementptr inbounds nuw %struct.AVFrame, ptr %155, i32 0, i32 1
  %157 = load i32, ptr %13, align 4, !tbaa !24
  %158 = sext i32 %157 to i64
  %159 = getelementptr inbounds [8 x i32], ptr %156, i64 0, i64 %158
  %160 = load i32, ptr %159, align 4, !tbaa !24
  %161 = load i32, ptr %16, align 4, !tbaa !24
  %162 = load i32, ptr %15, align 4, !tbaa !24
  %163 = load i32, ptr %17, align 4, !tbaa !24
  %164 = load i32, ptr %18, align 4, !tbaa !24
  %165 = load i32, ptr %7, align 4, !tbaa !24
  call void %125(ptr noundef %126, ptr noundef %132, i32 noundef %138, ptr noundef %154, i32 noundef %160, i32 noundef %161, i32 noundef %162, i32 noundef %163, i32 noundef %164, i32 noundef %165)
  store i32 0, ptr %14, align 4
  br label %166

166:                                              ; preds = %122, %67
  call void @llvm.lifetime.end.p0(i64 4, ptr %18) #8
  call void @llvm.lifetime.end.p0(i64 4, ptr %17) #8
  call void @llvm.lifetime.end.p0(i64 4, ptr %16) #8
  call void @llvm.lifetime.end.p0(i64 4, ptr %15) #8
  %167 = load i32, ptr %14, align 4
  switch i32 %167, label %173 [
    i32 0, label %168
    i32 4, label %169
  ]

168:                                              ; preds = %166
  br label %169

169:                                              ; preds = %168, %166
  %170 = load i32, ptr %13, align 4, !tbaa !24
  %171 = add nsw i32 %170, 1
  store i32 %171, ptr %13, align 4, !tbaa !24
  br label %29, !llvm.loop !80

172:                                              ; preds = %35
  store i32 1, ptr %14, align 4
  call void @llvm.lifetime.end.p0(i64 8, ptr %12) #8
  call void @llvm.lifetime.end.p0(i64 8, ptr %11) #8
  call void @llvm.lifetime.end.p0(i64 8, ptr %10) #8
  call void @llvm.lifetime.end.p0(i64 8, ptr %9) #8
  ret i32 0

173:                                              ; preds = %166
  unreachable
}