; Function Attrs: nounwind uwtable
define internal noundef i32 @filter_slice(ptr noundef %0, ptr noundef readonly captures(none) %1, i32 noundef %2, i32 noundef %3) #1 {
  %5 = getelementptr inbounds nuw i8, ptr %0, i64 72
  %6 = load ptr, ptr %5, align 8, !tbaa !4
  %7 = load ptr, ptr %1, align 8, !tbaa !47
  %8 = getelementptr inbounds nuw i8, ptr %1, i64 8
  %9 = load ptr, ptr %8, align 8, !tbaa !49
  %10 = getelementptr inbounds nuw i8, ptr %6, i64 60
  %11 = load i32, ptr %10, align 4, !tbaa !59
  %12 = icmp sgt i32 %11, 0
  br i1 %12, label %.lr.ph, label %._crit_edge

.lr.ph:                                           ; preds = %4
  %13 = getelementptr inbounds nuw i8, ptr %6, i64 40
  %14 = getelementptr inbounds nuw i8, ptr %6, i64 24
  %15 = add nsw i32 %2, 1
  %16 = getelementptr inbounds nuw i8, ptr %6, i64 8
  %17 = getelementptr inbounds nuw i8, ptr %6, i64 128
  %18 = getelementptr inbounds nuw i8, ptr %7, i64 64
  %19 = getelementptr inbounds nuw i8, ptr %9, i64 64
  %20 = getelementptr inbounds nuw i8, ptr %6, i64 56
  br label %21

._crit_edge:                                      ; preds = %67, %4
  ret i32 0

21:                                               ; preds = %.lr.ph, %67
  %indvars.iv = phi i64 [ 0, %.lr.ph ], [ %indvars.iv.next, %67 ]
  %22 = getelementptr inbounds nuw [4 x i32], ptr %13, i64 0, i64 %indvars.iv
  %23 = load i32, ptr %22, align 4, !tbaa !57
  %24 = getelementptr inbounds nuw [4 x i32], ptr %14, i64 0, i64 %indvars.iv
  %25 = load i32, ptr %24, align 4, !tbaa !57
  %26 = mul nsw i32 %23, %2
  %27 = sdiv i32 %26, %3
  %28 = mul nsw i32 %23, %15
  %29 = sdiv i32 %28, %3
  %30 = load i32, ptr %16, align 8, !tbaa !70
  %31 = trunc nuw nsw i64 %indvars.iv to i32
  %32 = shl nuw i32 1, %31
  %33 = and i32 %30, %32
  %.not = icmp eq i32 %33, 0
  br i1 %.not, label %34, label %54

34:                                               ; preds = %21
  %35 = getelementptr inbounds nuw [8 x ptr], ptr %9, i64 0, i64 %indvars.iv
  %36 = load ptr, ptr %35, align 8, !tbaa !71
  %37 = getelementptr inbounds nuw [8 x i32], ptr %19, i64 0, i64 %indvars.iv
  %38 = load i32, ptr %37, align 4, !tbaa !57
  %39 = mul nsw i32 %38, %27
  %40 = sext i32 %39 to i64
  %41 = getelementptr inbounds i8, ptr %36, i64 %40
  %42 = getelementptr inbounds nuw [8 x ptr], ptr %7, i64 0, i64 %indvars.iv
  %43 = load ptr, ptr %42, align 8, !tbaa !71
  %44 = getelementptr inbounds nuw [8 x i32], ptr %18, i64 0, i64 %indvars.iv
  %45 = load i32, ptr %44, align 4, !tbaa !57
  %46 = mul nsw i32 %45, %27
  %47 = sext i32 %46 to i64
  %48 = getelementptr inbounds i8, ptr %43, i64 %47
  %49 = load i32, ptr %20, align 8, !tbaa !53
  %50 = add nsw i32 %49, 7
  %51 = sdiv i32 %50, 8
  %52 = mul nsw i32 %51, %25
  %53 = sub nsw i32 %29, %27
  tail call void @av_image_copy_plane(ptr noundef %41, i32 noundef %38, ptr noundef %48, i32 noundef %45, i32 noundef %52, i32 noundef %53) #9
  br label %67

54:                                               ; preds = %21
  %55 = load ptr, ptr %17, align 8, !tbaa !69
  %56 = getelementptr inbounds nuw [8 x ptr], ptr %7, i64 0, i64 %indvars.iv
  %57 = load ptr, ptr %56, align 8, !tbaa !71
  %58 = getelementptr inbounds nuw [8 x i32], ptr %18, i64 0, i64 %indvars.iv
  %59 = load i32, ptr %58, align 4, !tbaa !57
  %60 = getelementptr inbounds nuw [8 x ptr], ptr %9, i64 0, i64 %indvars.iv
  %61 = load ptr, ptr %60, align 8, !tbaa !71
  %62 = getelementptr inbounds nuw [8 x i32], ptr %19, i64 0, i64 %indvars.iv
  %63 = load i32, ptr %62, align 4, !tbaa !57
  %64 = mul nsw i32 %63, %27
  %65 = sext i32 %64 to i64
  %66 = getelementptr inbounds i8, ptr %61, i64 %65
  tail call void %55(ptr noundef %0, ptr noundef %57, i32 noundef %59, ptr noundef %66, i32 noundef %63, i32 noundef %25, i32 noundef %23, i32 noundef %27, i32 noundef %29, i32 noundef %2) #9
  br label %67

67:                                               ; preds = %54, %34
  %indvars.iv.next = add nuw nsw i64 %indvars.iv, 1
  %68 = load i32, ptr %10, align 4, !tbaa !59
  %69 = sext i32 %68 to i64
  %70 = icmp slt i64 %indvars.iv.next, %69
  br i1 %70, label %21, label %._crit_edge, !llvm.loop !72
}